target datalayout = "e-m:e-p270:32:32-p271:32:32-p272:64:64-i64:64-i128:128-f80:128-n8:16:32:64-S128"
target triple = "x86_64-pc-linux-gnu"

%struct._typeobject = type { %struct.PyVarObject, ptr, i64, i64, ptr, i64, ptr, ptr, ptr, ptr, ptr, ptr, ptr, ptr, ptr, ptr, ptr, ptr, ptr, i64, ptr, ptr, ptr, ptr, i64, ptr, ptr, ptr, ptr, ptr, ptr, ptr, ptr, ptr, i64, ptr, ptr, ptr, ptr, ptr, ptr, ptr, ptr, ptr, ptr, ptr, i32, ptr, ptr, i8, i16 }
%struct.PyVarObject = type { %struct._object, i64 }
%struct._object = type { %union.anon, ptr }
%union.anon = type { i64 }
%struct.InternalFormatSpec = type { i32, i32, i32, i32, i32, i64, i32, i64, i32 }
%struct.anon = type { i32, i32 }

@PyExc_ValueError = external global ptr, align 8
@.str.11 = private unnamed_addr constant [53 x i8] c"Unknown format code '%c' for object of type '%.200s'\00", align 1
@.str.12 = private unnamed_addr constant [55 x i8] c"Unknown format code '\\x%x' for object of type '%.200s'\00", align 1

; Function Attrs: alwaysinline nounwind uwtable
define internal i32 @_Py_IsImmortal(ptr noundef %0) #4 {
  %2 = alloca ptr, align 8
  store ptr %0, ptr %2, align 8, !tbaa !8
  %3 = load ptr, ptr %2, align 8, !tbaa !8
  %4 = getelementptr inbounds nuw %struct._object, ptr %3, i32 0, i32 0
  %5 = getelementptr inbounds nuw %struct.anon, ptr %4, i32 0, i32 0
  %6 = load i32, ptr %5, align 8, !tbaa !27
  %7 = icmp slt i32 %6, 0
  %8 = zext i1 %7 to i32
  ret i32 %8
}

; Function Attrs: alwaysinline nounwind uwtable
define internal void @Py_DECREF(ptr noundef %0) #4 {
  %2 = alloca ptr, align 8
  store ptr %0, ptr %2, align 8, !tbaa !8
  %3 = load ptr, ptr %2, align 8, !tbaa !8
  %4 = call i32 @_Py_IsImmortal(ptr noundef %3)
  %5 = icmp ne i32 %4, 0
  br i1 %5, label %6, label %7

6:                                                ; preds = %1
  br label %16

7:                                                ; preds = %1
  %8 = load ptr, ptr %2, align 8, !tbaa !8
  %9 = getelementptr inbounds nuw %struct._object, ptr %8, i32 0, i32 0
  %10 = getelementptr inbounds nuw %struct.anon, ptr %9, i32 0, i32 0
  %11 = load i32, ptr %10, align 8, !tbaa !27
  %12 = add i32 %11, -1
  store i32 %12, ptr %10, align 8, !tbaa !27
  %13 = icmp eq i32 %12, 0
  br i1 %13, label %14, label %16

14:                                               ; preds = %7
  %15 = load ptr, ptr %2, align 8, !tbaa !8
  call void @_Py_Dealloc(ptr noundef %15)
  br label %16

16:                                               ; preds = %6, %14, %7
  ret void
}

; Function Attrs: nounwind uwtable
define internal void @unknown_presentation_type(i32 noundef %0, ptr noundef %1) #0 {
  %3 = alloca i32, align 4
  %4 = alloca ptr, align 8
  store i32 %0, ptr %3, align 4, !tbaa !26
  store ptr %1, ptr %4, align 8, !tbaa !41
  %5 = load i32, ptr %3, align 4, !tbaa !26
  %6 = icmp ugt i32 %5, 32
  br i1 %6, label %7, label %17

7:                                                ; preds = %2
  %8 = load i32, ptr %3, align 4, !tbaa !26
  %9 = icmp ult i32 %8, 128
  br i1 %9, label %10, label %17

10:                                               ; preds = %7
  %11 = load ptr, ptr @PyExc_ValueError, align 8, !tbaa !8
  %12 = load i32, ptr %3, align 4, !tbaa !26
  %13 = trunc i32 %12 to i8
  %14 = sext i8 %13 to i32
  %15 = load ptr, ptr %4, align 8, !tbaa !41
  %16 = call ptr (ptr, ptr, ...) @PyErr_Format(ptr noundef %11, ptr noundef @.str.11, i32 noundef %14, ptr noundef %15)
  br label %22

17:                                               ; preds = %7, %2
  %18 = load ptr, ptr @PyExc_ValueError, align 8, !tbaa !8
  %19 = load i32, ptr %3, align 4, !tbaa !26
  %20 = load ptr, ptr %4, align 8, !tbaa !41
  %21 = call ptr (ptr, ptr, ...) @PyErr_Format(ptr noundef %18, ptr noundef @.str.12, i32 noundef %19, ptr noundef %20)
  br label %22

22:                                               ; preds = %17, %10
  ret void
}

; Function Attrs: inlinehint nounwind uwtable
define internal ptr @_Py_TYPE(ptr noundef %0) #2 {
  %2 = alloca ptr, align 8
  store ptr %0, ptr %2, align 8, !tbaa !8
  %3 = load ptr, ptr %2, align 8, !tbaa !8
  %4 = getelementptr inbounds nuw %struct._object, ptr %3, i32 0, i32 1
  %5 = load ptr, ptr %4, align 8, !tbaa !42
  ret ptr %5
}

; Function Attrs: nounwind uwtable
define internal i32 @format_obj(ptr noundef %0, ptr noundef %1) #0 {
  %3 = alloca i32, align 4
  %4 = alloca ptr, align 8
  %5 = alloca ptr, align 8
  %6 = alloca ptr, align 8
  %7 = alloca i32, align 4
  %8 = alloca i32, align 4
  store ptr %0, ptr %4, align 8, !tbaa !8
  store ptr %1, ptr %5, align 8, !tbaa !4
  call void @llvm.lifetime.start.p0(i64 8, ptr %6) #10
  call void @llvm.lifetime.start.p0(i64 4, ptr %7) #10
  %9 = load ptr, ptr %4, align 8, !tbaa !8
  %10 = call ptr @PyObject_Str(ptr noundef %9)
  store ptr %10, ptr %6, align 8, !tbaa !8
  %11 = load ptr, ptr %6, align 8, !tbaa !8
  %12 = icmp eq ptr %11, null
  br i1 %12, label %13, label %14

13:                                               ; preds = %2
  store i32 -1, ptr %3, align 4
  store i32 1, ptr %8, align 4
  br label %20

14:                                               ; preds = %2
  %15 = load ptr, ptr %5, align 8, !tbaa !4
  %16 = load ptr, ptr %6, align 8, !tbaa !8
  %17 = call i32 @_PyUnicodeWriter_WriteStr(ptr noundef %15, ptr noundef %16)
  store i32 %17, ptr %7, align 4, !tbaa !26
  %18 = load ptr, ptr %6, align 8, !tbaa !8
  call void @Py_DECREF(ptr noundef %18)
  %19 = load i32, ptr %7, align 4, !tbaa !26
  store i32 %19, ptr %3, align 4
  store i32 1, ptr %8, align 4
  br label %20

20:                                               ; preds = %14, %13
  call void @llvm.lifetime.end.p0(i64 4, ptr %7) #10
  call void @llvm.lifetime.end.p0(i64 8, ptr %6) #10
  %21 = load i32, ptr %3, align 4
  ret i32 %21
}

; Function Attrs: nounwind uwtable
define hidden i32 @_PyFloat_FormatAdvancedWriter(ptr noundef %0, ptr noundef %1, ptr noundef %2, i64 noundef %3, i64 noundef %4) #0 {
  %6 = alloca i32, align 4
  %7 = alloca ptr, align 8
  %8 = alloca ptr, align 8
  %9 = alloca ptr, align 8
  %10 = alloca i64, align 8
  %11 = alloca i64, align 8
  %12 = alloca %struct.InternalFormatSpec, align 8
  %13 = alloca i32, align 4
  store ptr %0, ptr %7, align 8, !tbaa !4
  store ptr %1, ptr %8, align 8, !tbaa !8
  store ptr %2, ptr %9, align 8, !tbaa !8
  store i64 %3, ptr %10, align 8, !tbaa !10
  store i64 %4, ptr %11, align 8, !tbaa !10
  call void @llvm.lifetime.start.p0(i64 56, ptr %12) #10
  %14 = load i64, ptr %10, align 8, !tbaa !10
  %15 = load i64, ptr %11, align 8, !tbaa !10
  %16 = icmp eq i64 %14, %15
  br i1 %16, label %17, label %21

17:                                               ; preds = %5
  %18 = load ptr, ptr %8, align 8, !tbaa !8
  %19 = load ptr, ptr %7, align 8, !tbaa !4
  %20 = call i32 @format_obj(ptr noundef %18, ptr noundef %19)
  store i32 %20, ptr %6, align 4
  store i32 1, ptr %13, align 4
  br label %43

21:                                               ; preds = %5
  %22 = load ptr, ptr %8, align 8, !tbaa !8
  %23 = load ptr, ptr %9, align 8, !tbaa !8
  %24 = load i64, ptr %10, align 8, !tbaa !10
  %25 = load i64, ptr %11, align 8, !tbaa !10
  %26 = call i32 @parse_internal_render_format_spec(ptr noundef %22, ptr noundef %23, i64 noundef %24, i64 noundef %25, ptr noundef %12, i8 noundef signext 0, i8 noundef signext 62)
  %27 = icmp ne i32 %26, 0
  br i1 %27, label %29, label %28

28:                                               ; preds = %21
  store i32 -1, ptr %6, align 4
  store i32 1, ptr %13, align 4
  br label %43

29:                                               ; preds = %21
  %30 = getelementptr inbounds nuw %struct.InternalFormatSpec, ptr %12, i32 0, i32 8
  %31 = load i32, ptr %30, align 8, !tbaa !12
  switch i32 %31, label %36 [
    i32 0, label %32
    i32 101, label %32
    i32 69, label %32
    i32 102, label %32
    i32 70, label %32
    i32 103, label %32
    i32 71, label %32
    i32 110, label %32
    i32 37, label %32
  ]

32:                                               ; preds = %29, %29, %29, %29, %29, %29, %29, %29, %29
  %33 = load ptr, ptr %8, align 8, !tbaa !8
  %34 = load ptr, ptr %7, align 8, !tbaa !4
  %35 = call i32 @format_float_internal(ptr noundef %33, ptr noundef %12, ptr noundef %34)
  store i32 %35, ptr %6, align 4
  store i32 1, ptr %13, align 4
  br label %43

36:                                               ; preds = %29
  %37 = getelementptr inbounds nuw %struct.InternalFormatSpec, ptr %12, i32 0, i32 8
  %38 = load i32, ptr %37, align 8, !tbaa !12
  %39 = load ptr, ptr %8, align 8, !tbaa !8
  %40 = call ptr @_Py_TYPE(ptr noundef %39)
  %41 = getelementptr inbounds nuw %struct._typeobject, ptr %40, i32 0, i32 1
  %42 = load ptr, ptr %41, align 8, !tbaa !15
  call void @unknown_presentation_type(i32 noundef %38, ptr noundef %42)
  store i32 -1, ptr %6, align 4
  store i32 1, ptr %13, align 4
  br label %43

43:                                               ; preds = %36, %32, %28, %17
  call void @llvm.lifetime.end.p0(i64 56, ptr %12) #10
  %44 = load i32, ptr %6, align 4
  ret i32 %44
}