; Function Attrs: nounwind uwtable
define hidden i32 @_PyFloat_FormatAdvancedWriter(ptr noundef %0, ptr noundef %1, ptr noundef %2, i64 noundef %3, i64 noundef %4) local_unnamed_addr #0 {
  %6 = alloca %struct.InternalFormatSpec, align 8
  call void @llvm.lifetime.start.p0(i64 56, ptr nonnull %6) #12
  %7 = icmp eq i64 %3, %4
  br i1 %7, label %8, label %18

8:                                                ; preds = %5
  %9 = tail call ptr @PyObject_Str(ptr noundef %1) #12
  %10 = icmp eq ptr %9, null
  br i1 %10, label %format_obj.exit, label %11

11:                                               ; preds = %8
  %12 = tail call i32 @_PyUnicodeWriter_WriteStr(ptr noundef %0, ptr noundef nonnull %9) #12
  %13 = load i32, ptr %9, align 8, !tbaa !10
  %.not.i.i = icmp sgt i32 %13, -1
  br i1 %.not.i.i, label %14, label %format_obj.exit

14:                                               ; preds = %11
  %15 = add nsw i32 %13, -1
  store i32 %15, ptr %9, align 8, !tbaa !10
  %16 = icmp eq i32 %15, 0
  br i1 %16, label %17, label %format_obj.exit

17:                                               ; preds = %14
  tail call void @_Py_Dealloc(ptr noundef nonnull %9) #12
  br label %format_obj.exit

18:                                               ; preds = %5
  %19 = call fastcc i32 @parse_internal_render_format_spec(ptr noundef %1, ptr noundef %2, i64 noundef %3, i64 noundef %4, ptr noundef %6, i8 noundef signext 0, i8 noundef signext 62)
  %.not = icmp eq i32 %19, 0
  br i1 %.not, label %format_obj.exit, label %20

20:                                               ; preds = %18
  %21 = getelementptr inbounds nuw i8, ptr %6, i64 48
  %22 = load i32, ptr %21, align 8, !tbaa !11
  switch i32 %22, label %25 [
    i32 0, label %23
    i32 101, label %23
    i32 69, label %23
    i32 102, label %23
    i32 70, label %23
    i32 103, label %23
    i32 71, label %23
    i32 110, label %23
    i32 37, label %23
  ]

23:                                               ; preds = %20, %20, %20, %20, %20, %20, %20, %20, %20
  %24 = call fastcc i32 @format_float_internal(ptr noundef %1, ptr noundef %6, ptr noundef %0)
  br label %format_obj.exit

25:                                               ; preds = %20
  %26 = getelementptr i8, ptr %1, i64 8
  %.val = load ptr, ptr %26, align 8, !tbaa !4
  %27 = getelementptr inbounds nuw i8, ptr %.val, i64 24
  %28 = load ptr, ptr %27, align 8, !tbaa !32
  %29 = add i32 %22, -33
  %or.cond.i = icmp ult i32 %29, 95
  %30 = load ptr, ptr @PyExc_ValueError, align 8, !tbaa !20
  %.str.11..str.12.i = select i1 %or.cond.i, ptr @.str.11, ptr @.str.12
  %31 = tail call ptr (ptr, ptr, ...) @PyErr_Format(ptr noundef %30, ptr noundef nonnull %.str.11..str.12.i, i32 noundef %22, ptr noundef %28) #12
  br label %format_obj.exit

format_obj.exit:                                  ; preds = %17, %14, %11, %8, %18, %25, %23
  %.0 = phi i32 [ -1, %25 ], [ %24, %23 ], [ -1, %18 ], [ -1, %8 ], [ %12, %11 ], [ %12, %14 ], [ %12, %17 ]
  call void @llvm.lifetime.end.p0(i64 56, ptr nonnull %6) #12
  ret i32 %.0
}